target datalayout = "e-m:e-p270:32:32-p271:32:32-p272:64:64-i64:64-i128:128-f80:128-n8:16:32:64-S128"
target triple = "x86_64-pc-linux-gnu"

; Function Attrs: mustprogress nounwind uwtable
define internal noundef zeroext i1 @"_ZZNK4llvm12X86InstrInfo23areLoadsFromSameBasePtrEPNS_6SDNodeES2_RlS3_ENK3$_0clEj"(ptr noundef nonnull align 1 dereferenceable(1) %0, i32 noundef %1) #0 align 2 {
  %3 = alloca i1, align 1
  %4 = alloca ptr, align 8
  %5 = alloca i32, align 4
  store ptr %0, ptr %4, align 8
  store i32 %1, ptr %5, align 4
  %6 = load i32, ptr %5, align 4
  switch i32 %6, label %7 [
    i32 2564, label %8
    i32 2508, label %8
    i32 2528, label %8
    i32 2545, label %8
    i32 2086, label %8
    i32 2089, label %8
    i32 2091, label %8
    i32 2660, label %8
    i32 2661, label %8
    i32 2647, label %8
    i32 2648, label %8
    i32 2323, label %8
    i32 2333, label %8
    i32 2574, label %8
    i32 2690, label %8
    i32 2570, label %8
    i32 2686, label %8
    i32 2610, label %8
    i32 2614, label %8
    i32 13910, label %8
    i32 13911, label %8
    i32 13831, label %8
    i32 13832, label %8
    i32 13515, label %8
    i32 13993, label %8
    i32 13474, label %8
    i32 13952, label %8
    i32 13617, label %8
    i32 13757, label %8
    i32 13478, label %8
    i32 13956, label %8
    i32 13437, label %8
    i32 13915, label %8
    i32 13613, label %8
    i32 13753, label %8
    i32 13899, label %8
    i32 13900, label %8
    i32 13820, label %8
    i32 13821, label %8
    i32 13483, label %8
    i32 13961, label %8
    i32 378, label %8
    i32 382, label %8
    i32 13442, label %8
    i32 13920, label %8
    i32 13721, label %8
    i32 13622, label %8
    i32 13548, label %8
    i32 13655, label %8
    i32 13581, label %8
    i32 13688, label %8
    i32 13494, label %8
    i32 13972, label %8
    i32 380, label %8
    i32 384, label %8
    i32 13453, label %8
    i32 13931, label %8
    i32 13732, label %8
    i32 13633, label %8
    i32 13559, label %8
    i32 13666, label %8
    i32 13592, label %8
    i32 13699, label %8
    i32 13505, label %8
    i32 13983, label %8
    i32 13464, label %8
    i32 13942, label %8
    i32 13743, label %8
    i32 13644, label %8
    i32 13570, label %8
    i32 13677, label %8
    i32 13603, label %8
    i32 13710, label %8
    i32 1983, label %8
    i32 1984, label %8
    i32 2013, label %8
    i32 2014, label %8
    i32 1993, label %8
    i32 1994, label %8
    i32 2003, label %8
    i32 2004, label %8
  ]

7:                                                ; preds = %2
  store i1 false, ptr %3, align 1
  br label %9

8:                                                ; preds = %2, %2, %2, %2, %2, %2, %2, %2, %2, %2, %2, %2, %2, %2, %2, %2, %2, %2, %2, %2, %2, %2, %2, %2, %2, %2, %2, %2, %2, %2, %2, %2, %2, %2, %2, %2, %2, %2, %2, %2, %2, %2, %2, %2, %2, %2, %2, %2, %2, %2, %2, %2, %2, %2, %2, %2, %2, %2, %2, %2, %2, %2, %2, %2, %2, %2, %2, %2, %2, %2, %2, %2, %2, %2, %2, %2, %2, %2, %2, %2, %2
  store i1 true, ptr %3, align 1
  br label %9

9:                                                ; preds = %8, %7
  %10 = load i1, ptr %3, align 1
  ret i1 %10
}