; Function Attrs: mustprogress nofree norecurse nosync nounwind willreturn memory(none) uwtable
define internal fastcc noundef zeroext i1 @"_ZZNK4llvm12X86InstrInfo23areLoadsFromSameBasePtrEPNS_6SDNodeES2_RlS3_ENK3$_0clEj"(i32 noundef %0) unnamed_addr #3 align 2 {
  switch i32 %0, label %3 [
    i32 2564, label %2
    i32 2508, label %2
    i32 2528, label %2
    i32 2545, label %2
    i32 2086, label %2
    i32 2089, label %2
    i32 2091, label %2
    i32 2660, label %2
    i32 2661, label %2
    i32 2647, label %2
    i32 2648, label %2
    i32 2323, label %2
    i32 2333, label %2
    i32 2574, label %2
    i32 2690, label %2
    i32 2570, label %2
    i32 2686, label %2
    i32 2610, label %2
    i32 2614, label %2
    i32 13910, label %2
    i32 13911, label %2
    i32 13831, label %2
    i32 13832, label %2
    i32 13515, label %2
    i32 13993, label %2
    i32 13474, label %2
    i32 13952, label %2
    i32 13617, label %2
    i32 13757, label %2
    i32 13478, label %2
    i32 13956, label %2
    i32 13437, label %2
    i32 13915, label %2
    i32 13613, label %2
    i32 13753, label %2
    i32 13899, label %2
    i32 13900, label %2
    i32 13820, label %2
    i32 13821, label %2
    i32 13483, label %2
    i32 13961, label %2
    i32 378, label %2
    i32 382, label %2
    i32 13442, label %2
    i32 13920, label %2
    i32 13721, label %2
    i32 13622, label %2
    i32 13548, label %2
    i32 13655, label %2
    i32 13581, label %2
    i32 13688, label %2
    i32 13494, label %2
    i32 13972, label %2
    i32 380, label %2
    i32 384, label %2
    i32 13453, label %2
    i32 13931, label %2
    i32 13732, label %2
    i32 13633, label %2
    i32 13559, label %2
    i32 13666, label %2
    i32 13592, label %2
    i32 13699, label %2
    i32 13505, label %2
    i32 13983, label %2
    i32 13464, label %2
    i32 13942, label %2
    i32 13743, label %2
    i32 13644, label %2
    i32 13570, label %2
    i32 13677, label %2
    i32 13603, label %2
    i32 13710, label %2
    i32 1983, label %2
    i32 1984, label %2
    i32 2013, label %2
    i32 2014, label %2
    i32 1993, label %2
    i32 1994, label %2
    i32 2003, label %2
    i32 2004, label %2
  ]

2:                                                ; preds = %1, %1, %1, %1, %1, %1, %1, %1, %1, %1, %1, %1, %1, %1, %1, %1, %1, %1, %1, %1, %1, %1, %1, %1, %1, %1, %1, %1, %1, %1, %1, %1, %1, %1, %1, %1, %1, %1, %1, %1, %1, %1, %1, %1, %1, %1, %1, %1, %1, %1, %1, %1, %1, %1, %1, %1, %1, %1, %1, %1, %1, %1, %1, %1, %1, %1, %1, %1, %1, %1, %1, %1, %1, %1, %1, %1, %1, %1, %1, %1, %1
  br label %3

3:                                                ; preds = %1, %2
  %.0 = phi i1 [ true, %2 ], [ false, %1 ]
  ret i1 %.0
}